target datalayout = "e-m:e-p270:32:32-p271:32:32-p272:64:64-i64:64-i128:128-f80:128-n8:16:32:64-S128"
target triple = "x86_64-pc-linux-gnu"

%struct.wtap_dumper = type { ptr, i32, i32, i32, i32, i8, i64, ptr, ptr, ptr, ptr, ptr, ptr, ptr, ptr, ptr, ptr, ptr, ptr, ptr, i32, i32, i32 }

; Function Attrs: null_pointer_is_valid sspstrong uwtable
define internal i32 @wtap_dump_file_close(ptr noundef %0) #0 {
  %2 = alloca i32, align 4
  %3 = alloca ptr, align 8
  store ptr %0, ptr %3, align 8
  %4 = load ptr, ptr %3, align 8
  %5 = getelementptr inbounds nuw %struct.wtap_dumper, ptr %4, i32 0, i32 4
  %6 = load i32, ptr %5, align 4
  switch i32 %6, label %17 [
    i32 1, label %7
    i32 3, label %12
  ]

7:                                                ; preds = %1
  %8 = load ptr, ptr %3, align 8
  %9 = getelementptr inbounds nuw %struct.wtap_dumper, ptr %8, i32 0, i32 0
  %10 = load ptr, ptr %9, align 8
  %11 = call i32 @gzwfile_close(ptr noundef %10)
  store i32 %11, ptr %2, align 4
  br label %22

12:                                               ; preds = %1
  %13 = load ptr, ptr %3, align 8
  %14 = getelementptr inbounds nuw %struct.wtap_dumper, ptr %13, i32 0, i32 0
  %15 = load ptr, ptr %14, align 8
  %16 = call i32 @lz4wfile_close(ptr noundef %15)
  store i32 %16, ptr %2, align 4
  br label %22

17:                                               ; preds = %1
  %18 = load ptr, ptr %3, align 8
  %19 = getelementptr inbounds nuw %struct.wtap_dumper, ptr %18, i32 0, i32 0
  %20 = load ptr, ptr %19, align 8
  %21 = call i32 @fclose(ptr noundef %20)
  store i32 %21, ptr %2, align 4
  br label %22

22:                                               ; preds = %17, %12, %7
  %23 = load i32, ptr %2, align 4
  ret i32 %23
}

; Function Attrs: null_pointer_is_valid sspstrong uwtable
define zeroext i1 @wtap_dump_close(ptr noundef %0, ptr noundef %1, ptr noundef %2, ptr noundef %3) #0 {
  %5 = alloca ptr, align 8
  %6 = alloca ptr, align 8
  %7 = alloca ptr, align 8
  %8 = alloca ptr, align 8
  %9 = alloca i8, align 1
  store ptr %0, ptr %5, align 8
  store ptr %1, ptr %6, align 8
  store ptr %2, ptr %7, align 8
  store ptr %3, ptr %8, align 8
  call void @llvm.lifetime.start.p0(i64 1, ptr %9) #12
  store i8 1, ptr %9, align 1
  %10 = load ptr, ptr %7, align 8
  store i32 0, ptr %10, align 4
  %11 = load ptr, ptr %8, align 8
  store ptr null, ptr %11, align 8
  %12 = load ptr, ptr %5, align 8
  %13 = getelementptr inbounds nuw %struct.wtap_dumper, ptr %12, i32 0, i32 11
  %14 = load ptr, ptr %13, align 8
  %15 = icmp ne ptr %14, null
  br i1 %15, label %16, label %26

16:                                               ; preds = %4
  %17 = load ptr, ptr %5, align 8
  %18 = getelementptr inbounds nuw %struct.wtap_dumper, ptr %17, i32 0, i32 11
  %19 = load ptr, ptr %18, align 8
  %20 = load ptr, ptr %5, align 8
  %21 = load ptr, ptr %7, align 8
  %22 = load ptr, ptr %8, align 8
  %23 = call zeroext i1 %19(ptr noundef %20, ptr noundef %21, ptr noundef %22)
  br i1 %23, label %25, label %24

24:                                               ; preds = %16
  store i8 0, ptr %9, align 1
  br label %25

25:                                               ; preds = %24, %16
  br label %26

26:                                               ; preds = %25, %4
  %27 = call ptr @__errno_location() #15
  store i32 -11, ptr %27, align 4
  %28 = load ptr, ptr %5, align 8
  %29 = call i32 @wtap_dump_file_close(ptr noundef %28)
  %30 = icmp eq i32 %29, -1
  br i1 %30, label %31, label %43

31:                                               ; preds = %26
  %32 = load i8, ptr %9, align 1, !range !10, !noundef !11
  %33 = trunc i8 %32 to i1
  br i1 %33, label %34, label %42

34:                                               ; preds = %31
  %35 = load ptr, ptr %7, align 8
  %36 = icmp ne ptr %35, null
  br i1 %36, label %37, label %41

37:                                               ; preds = %34
  %38 = call ptr @__errno_location() #15
  %39 = load i32, ptr %38, align 4
  %40 = load ptr, ptr %7, align 8
  store i32 %39, ptr %40, align 4
  br label %41

41:                                               ; preds = %37, %34
  br label %42

42:                                               ; preds = %41, %31
  store i8 0, ptr %9, align 1
  br label %43

43:                                               ; preds = %42, %26
  %44 = load ptr, ptr %6, align 8
  %45 = icmp ne ptr %44, null
  br i1 %45, label %46, label %53

46:                                               ; preds = %43
  %47 = load ptr, ptr %5, align 8
  %48 = getelementptr inbounds nuw %struct.wtap_dumper, ptr %47, i32 0, i32 5
  %49 = load i8, ptr %48, align 8, !range !10, !noundef !11
  %50 = trunc i8 %49 to i1
  %51 = load ptr, ptr %6, align 8
  %52 = zext i1 %50 to i8
  store i8 %52, ptr %51, align 1
  br label %53

53:                                               ; preds = %46, %43
  %54 = load ptr, ptr %5, align 8
  %55 = getelementptr inbounds nuw %struct.wtap_dumper, ptr %54, i32 0, i32 7
  %56 = load ptr, ptr %55, align 8
  call void @g_free(ptr noundef %56)
  %57 = load ptr, ptr %5, align 8
  %58 = getelementptr inbounds nuw %struct.wtap_dumper, ptr %57, i32 0, i32 15
  %59 = load ptr, ptr %58, align 8
  call void @wtap_block_array_free(ptr noundef %59)
  %60 = load ptr, ptr %5, align 8
  %61 = getelementptr inbounds nuw %struct.wtap_dumper, ptr %60, i32 0, i32 16
  %62 = load ptr, ptr %61, align 8
  call void @wtap_block_array_unref(ptr noundef %62)
  %63 = load ptr, ptr %5, align 8
  call void @g_free(ptr noundef %63)
  %64 = load i8, ptr %9, align 1, !range !10, !noundef !11
  %65 = trunc i8 %64 to i1
  call void @llvm.lifetime.end.p0(i64 1, ptr %9) #12
  ret i1 %65
}