; Function Attrs: null_pointer_is_valid sspstrong uwtable
define zeroext i1 @wtap_dump_close(ptr noundef %0, ptr noundef writeonly captures(address_is_null) %1, ptr noundef initializes((0, 4)) %2, ptr noundef initializes((0, 8)) %3) local_unnamed_addr #0 {
  store i32 0, ptr %2, align 4
  store ptr null, ptr %3, align 8
  %5 = getelementptr inbounds nuw i8, ptr %0, i64 72
  %6 = load ptr, ptr %5, align 8
  %.not = icmp eq ptr %6, null
  br i1 %.not, label %9, label %7

7:                                                ; preds = %4
  %8 = tail call zeroext i1 %6(ptr noundef %0, ptr noundef %2, ptr noundef %3)
  %spec.select = zext i1 %8 to i8
  br label %9

9:                                                ; preds = %7, %4
  %.0 = phi i8 [ 1, %4 ], [ %spec.select, %7 ]
  %10 = tail call ptr @__errno_location() #25
  store i32 -11, ptr %10, align 4
  %11 = getelementptr inbounds nuw i8, ptr %0, i64 20
  %12 = load i32, ptr %11, align 4
  %13 = load ptr, ptr %0, align 8
  switch i32 %12, label %18 [
    i32 1, label %14
    i32 3, label %16
  ]

14:                                               ; preds = %9
  %15 = tail call i32 @gzwfile_close(ptr noundef %13)
  br label %wtap_dump_file_close.exit

16:                                               ; preds = %9
  %17 = tail call i32 @lz4wfile_close(ptr noundef %13)
  br label %wtap_dump_file_close.exit

18:                                               ; preds = %9
  %19 = tail call i32 @fclose(ptr noundef %13)
  br label %wtap_dump_file_close.exit

wtap_dump_file_close.exit:                        ; preds = %14, %16, %18
  %.0.i = phi i32 [ %19, %18 ], [ %17, %16 ], [ %15, %14 ]
  %20 = icmp eq i32 %.0.i, -1
  br i1 %20, label %21, label %26

21:                                               ; preds = %wtap_dump_file_close.exit
  %22 = trunc nuw i8 %.0 to i1
  %23 = icmp ne ptr %2, null
  %or.cond = and i1 %23, %22
  br i1 %or.cond, label %24, label %26

24:                                               ; preds = %21
  %25 = load i32, ptr %10, align 4
  store i32 %25, ptr %2, align 4
  br label %26

26:                                               ; preds = %21, %24, %wtap_dump_file_close.exit
  %.1 = phi i8 [ %.0, %wtap_dump_file_close.exit ], [ 0, %24 ], [ 0, %21 ]
  %.not22 = icmp eq ptr %1, null
  br i1 %.not22, label %30, label %27

27:                                               ; preds = %26
  %28 = getelementptr inbounds nuw i8, ptr %0, i64 24
  %29 = load i8, ptr %28, align 8, !range !34, !noundef !35
  store i8 %29, ptr %1, align 1
  br label %30

30:                                               ; preds = %27, %26
  %31 = getelementptr inbounds nuw i8, ptr %0, i64 40
  %32 = load ptr, ptr %31, align 8
  tail call void @g_free(ptr noundef %32)
  %33 = getelementptr inbounds nuw i8, ptr %0, i64 104
  %34 = load ptr, ptr %33, align 8
  tail call void @wtap_block_array_free(ptr noundef %34)
  %35 = getelementptr inbounds nuw i8, ptr %0, i64 112
  %36 = load ptr, ptr %35, align 8
  tail call void @wtap_block_array_unref(ptr noundef %36)
  tail call void @g_free(ptr noundef %0)
  %37 = trunc nuw i8 %.1 to i1
  ret i1 %37
}